target datalayout = "e-m:e-p270:32:32-p271:32:32-p272:64:64-i64:64-i128:128-f80:128-n8:16:32:64-S128"
target triple = "x86_64-pc-linux-gnu"

%struct.NFA = type { i32, i32, i8, i8, i8, i8, %union.anon, i32, i32, i32, i32, i32, i32, i32, [20 x i8] }
%union.anon = type { i16 }

; Function Attrs: nounwind uwtable
define hidden signext i8 @nfaExpandState(ptr noundef %0, ptr noundef %1, ptr noundef %2, i64 noundef %3, i8 noundef zeroext %4) #0 {
  %6 = alloca i8, align 1
  %7 = alloca ptr, align 8
  %8 = alloca ptr, align 8
  %9 = alloca ptr, align 8
  %10 = alloca i64, align 8
  %11 = alloca i8, align 1
  %12 = alloca i32, align 4
  %13 = alloca i32, align 4
  %14 = alloca i32, align 4
  %15 = alloca i32, align 4
  store ptr %0, ptr %7, align 8
  store ptr %1, ptr %8, align 8
  store ptr %2, ptr %9, align 8
  store i64 %3, ptr %10, align 8
  store i8 %4, ptr %11, align 1
  %16 = load ptr, ptr %7, align 8
  %17 = getelementptr inbounds nuw %struct.NFA, ptr %16, i32 0, i32 2
  %18 = load i8, ptr %17, align 8
  %19 = zext i8 %18 to i32
  switch i32 %19, label %179 [
    i32 0, label %20
    i32 1, label %27
    i32 2, label %34
    i32 3, label %41
    i32 4, label %48
    i32 5, label %55
    i32 6, label %62
    i32 7, label %69
    i32 8, label %76
    i32 9, label %83
    i32 10, label %90
    i32 11, label %97
    i32 12, label %104
    i32 13, label %111
    i32 14, label %118
    i32 15, label %125
    i32 16, label %132
    i32 17, label %139
    i32 18, label %146
    i32 19, label %153
    i32 20, label %160
    i32 21, label %167
    i32 22, label %170
    i32 23, label %173
    i32 24, label %176
  ]

20:                                               ; preds = %5
  %21 = load ptr, ptr %7, align 8
  %22 = load ptr, ptr %8, align 8
  %23 = load ptr, ptr %9, align 8
  %24 = load i64, ptr %10, align 8
  %25 = load i8, ptr %11, align 1
  %26 = call signext i8 @nfaExecLimEx32_expandState(ptr noundef %21, ptr noundef %22, ptr noundef %23, i64 noundef %24, i8 noundef zeroext %25)
  store i8 %26, ptr %6, align 1
  br label %181

27:                                               ; preds = %5
  %28 = load ptr, ptr %7, align 8
  %29 = load ptr, ptr %8, align 8
  %30 = load ptr, ptr %9, align 8
  %31 = load i64, ptr %10, align 8
  %32 = load i8, ptr %11, align 1
  %33 = call signext i8 @nfaExecLimEx64_expandState(ptr noundef %28, ptr noundef %29, ptr noundef %30, i64 noundef %31, i8 noundef zeroext %32)
  store i8 %33, ptr %6, align 1
  br label %181

34:                                               ; preds = %5
  %35 = load ptr, ptr %7, align 8
  %36 = load ptr, ptr %8, align 8
  %37 = load ptr, ptr %9, align 8
  %38 = load i64, ptr %10, align 8
  %39 = load i8, ptr %11, align 1
  %40 = call signext i8 @nfaExecLimEx128_expandState(ptr noundef %35, ptr noundef %36, ptr noundef %37, i64 noundef %38, i8 noundef zeroext %39)
  store i8 %40, ptr %6, align 1
  br label %181

41:                                               ; preds = %5
  %42 = load ptr, ptr %7, align 8
  %43 = load ptr, ptr %8, align 8
  %44 = load ptr, ptr %9, align 8
  %45 = load i64, ptr %10, align 8
  %46 = load i8, ptr %11, align 1
  %47 = call signext i8 @nfaExecLimEx256_expandState(ptr noundef %42, ptr noundef %43, ptr noundef %44, i64 noundef %45, i8 noundef zeroext %46)
  store i8 %47, ptr %6, align 1
  br label %181

48:                                               ; preds = %5
  %49 = load ptr, ptr %7, align 8
  %50 = load ptr, ptr %8, align 8
  %51 = load ptr, ptr %9, align 8
  %52 = load i64, ptr %10, align 8
  %53 = load i8, ptr %11, align 1
  %54 = call signext i8 @nfaExecLimEx384_expandState(ptr noundef %49, ptr noundef %50, ptr noundef %51, i64 noundef %52, i8 noundef zeroext %53)
  store i8 %54, ptr %6, align 1
  br label %181

55:                                               ; preds = %5
  %56 = load ptr, ptr %7, align 8
  %57 = load ptr, ptr %8, align 8
  %58 = load ptr, ptr %9, align 8
  %59 = load i64, ptr %10, align 8
  %60 = load i8, ptr %11, align 1
  %61 = call signext i8 @nfaExecLimEx512_expandState(ptr noundef %56, ptr noundef %57, ptr noundef %58, i64 noundef %59, i8 noundef zeroext %60)
  store i8 %61, ptr %6, align 1
  br label %181

62:                                               ; preds = %5
  %63 = load ptr, ptr %7, align 8
  %64 = load ptr, ptr %8, align 8
  %65 = load ptr, ptr %9, align 8
  %66 = load i64, ptr %10, align 8
  %67 = load i8, ptr %11, align 1
  %68 = call signext i8 @nfaExecMcClellan8_expandState(ptr noundef %63, ptr noundef %64, ptr noundef %65, i64 noundef %66, i8 noundef zeroext %67)
  store i8 %68, ptr %6, align 1
  br label %181

69:                                               ; preds = %5
  %70 = load ptr, ptr %7, align 8
  %71 = load ptr, ptr %8, align 8
  %72 = load ptr, ptr %9, align 8
  %73 = load i64, ptr %10, align 8
  %74 = load i8, ptr %11, align 1
  %75 = call signext i8 @nfaExecMcClellan16_expandState(ptr noundef %70, ptr noundef %71, ptr noundef %72, i64 noundef %73, i8 noundef zeroext %74)
  store i8 %75, ptr %6, align 1
  br label %181

76:                                               ; preds = %5
  %77 = load ptr, ptr %7, align 8
  %78 = load ptr, ptr %8, align 8
  %79 = load ptr, ptr %9, align 8
  %80 = load i64, ptr %10, align 8
  %81 = load i8, ptr %11, align 1
  %82 = call signext i8 @nfaExecGough8_expandState(ptr noundef %77, ptr noundef %78, ptr noundef %79, i64 noundef %80, i8 noundef zeroext %81)
  store i8 %82, ptr %6, align 1
  br label %181

83:                                               ; preds = %5
  %84 = load ptr, ptr %7, align 8
  %85 = load ptr, ptr %8, align 8
  %86 = load ptr, ptr %9, align 8
  %87 = load i64, ptr %10, align 8
  %88 = load i8, ptr %11, align 1
  %89 = call signext i8 @nfaExecGough16_expandState(ptr noundef %84, ptr noundef %85, ptr noundef %86, i64 noundef %87, i8 noundef zeroext %88)
  store i8 %89, ptr %6, align 1
  br label %181

90:                                               ; preds = %5
  %91 = load ptr, ptr %7, align 8
  %92 = load ptr, ptr %8, align 8
  %93 = load ptr, ptr %9, align 8
  %94 = load i64, ptr %10, align 8
  %95 = load i8, ptr %11, align 1
  %96 = call signext i8 @nfaExecMpv_expandState(ptr noundef %91, ptr noundef %92, ptr noundef %93, i64 noundef %94, i8 noundef zeroext %95)
  store i8 %96, ptr %6, align 1
  br label %181

97:                                               ; preds = %5
  %98 = load ptr, ptr %7, align 8
  %99 = load ptr, ptr %8, align 8
  %100 = load ptr, ptr %9, align 8
  %101 = load i64, ptr %10, align 8
  %102 = load i8, ptr %11, align 1
  %103 = call signext i8 @nfaExecLbrDot_expandState(ptr noundef %98, ptr noundef %99, ptr noundef %100, i64 noundef %101, i8 noundef zeroext %102)
  store i8 %103, ptr %6, align 1
  br label %181

104:                                              ; preds = %5
  %105 = load ptr, ptr %7, align 8
  %106 = load ptr, ptr %8, align 8
  %107 = load ptr, ptr %9, align 8
  %108 = load i64, ptr %10, align 8
  %109 = load i8, ptr %11, align 1
  %110 = call signext i8 @nfaExecLbrVerm_expandState(ptr noundef %105, ptr noundef %106, ptr noundef %107, i64 noundef %108, i8 noundef zeroext %109)
  store i8 %110, ptr %6, align 1
  br label %181

111:                                              ; preds = %5
  %112 = load ptr, ptr %7, align 8
  %113 = load ptr, ptr %8, align 8
  %114 = load ptr, ptr %9, align 8
  %115 = load i64, ptr %10, align 8
  %116 = load i8, ptr %11, align 1
  %117 = call signext i8 @nfaExecLbrNVerm_expandState(ptr noundef %112, ptr noundef %113, ptr noundef %114, i64 noundef %115, i8 noundef zeroext %116)
  store i8 %117, ptr %6, align 1
  br label %181

118:                                              ; preds = %5
  %119 = load ptr, ptr %7, align 8
  %120 = load ptr, ptr %8, align 8
  %121 = load ptr, ptr %9, align 8
  %122 = load i64, ptr %10, align 8
  %123 = load i8, ptr %11, align 1
  %124 = call signext i8 @nfaExecLbrShuf_expandState(ptr noundef %119, ptr noundef %120, ptr noundef %121, i64 noundef %122, i8 noundef zeroext %123)
  store i8 %124, ptr %6, align 1
  br label %181

125:                                              ; preds = %5
  %126 = load ptr, ptr %7, align 8
  %127 = load ptr, ptr %8, align 8
  %128 = load ptr, ptr %9, align 8
  %129 = load i64, ptr %10, align 8
  %130 = load i8, ptr %11, align 1
  %131 = call signext i8 @nfaExecLbrTruf_expandState(ptr noundef %126, ptr noundef %127, ptr noundef %128, i64 noundef %129, i8 noundef zeroext %130)
  store i8 %131, ptr %6, align 1
  br label %181

132:                                              ; preds = %5
  %133 = load ptr, ptr %7, align 8
  %134 = load ptr, ptr %8, align 8
  %135 = load ptr, ptr %9, align 8
  %136 = load i64, ptr %10, align 8
  %137 = load i8, ptr %11, align 1
  %138 = call signext i8 @nfaExecCastle_expandState(ptr noundef %133, ptr noundef %134, ptr noundef %135, i64 noundef %136, i8 noundef zeroext %137)
  store i8 %138, ptr %6, align 1
  br label %181

139:                                              ; preds = %5
  %140 = load ptr, ptr %7, align 8
  %141 = load ptr, ptr %8, align 8
  %142 = load ptr, ptr %9, align 8
  %143 = load i64, ptr %10, align 8
  %144 = load i8, ptr %11, align 1
  %145 = call signext i8 @nfaExecSheng_expandState(ptr noundef %140, ptr noundef %141, ptr noundef %142, i64 noundef %143, i8 noundef zeroext %144)
  store i8 %145, ptr %6, align 1
  br label %181

146:                                              ; preds = %5
  %147 = load ptr, ptr %7, align 8
  %148 = load ptr, ptr %8, align 8
  %149 = load ptr, ptr %9, align 8
  %150 = load i64, ptr %10, align 8
  %151 = load i8, ptr %11, align 1
  %152 = call signext i8 @nfaExecTamarama_expandState(ptr noundef %147, ptr noundef %148, ptr noundef %149, i64 noundef %150, i8 noundef zeroext %151)
  store i8 %152, ptr %6, align 1
  br label %181

153:                                              ; preds = %5
  %154 = load ptr, ptr %7, align 8
  %155 = load ptr, ptr %8, align 8
  %156 = load ptr, ptr %9, align 8
  %157 = load i64, ptr %10, align 8
  %158 = load i8, ptr %11, align 1
  %159 = call signext i8 @nfaExecMcSheng8_expandState(ptr noundef %154, ptr noundef %155, ptr noundef %156, i64 noundef %157, i8 noundef zeroext %158)
  store i8 %159, ptr %6, align 1
  br label %181

160:                                              ; preds = %5
  %161 = load ptr, ptr %7, align 8
  %162 = load ptr, ptr %8, align 8
  %163 = load ptr, ptr %9, align 8
  %164 = load i64, ptr %10, align 8
  %165 = load i8, ptr %11, align 1
  %166 = call signext i8 @nfaExecMcSheng16_expandState(ptr noundef %161, ptr noundef %162, ptr noundef %163, i64 noundef %164, i8 noundef zeroext %165)
  store i8 %166, ptr %6, align 1
  br label %181

167:                                              ; preds = %5
  store i32 0, ptr %12, align 4
  %168 = load i32, ptr %12, align 4
  %169 = trunc i32 %168 to i8
  store i8 %169, ptr %6, align 1
  br label %181

170:                                              ; preds = %5
  store i32 0, ptr %13, align 4
  %171 = load i32, ptr %13, align 4
  %172 = trunc i32 %171 to i8
  store i8 %172, ptr %6, align 1
  br label %181

173:                                              ; preds = %5
  store i32 0, ptr %14, align 4
  %174 = load i32, ptr %14, align 4
  %175 = trunc i32 %174 to i8
  store i8 %175, ptr %6, align 1
  br label %181

176:                                              ; preds = %5
  store i32 0, ptr %15, align 4
  %177 = load i32, ptr %15, align 4
  %178 = trunc i32 %177 to i8
  store i8 %178, ptr %6, align 1
  br label %181

179:                                              ; preds = %5
  br label %180

180:                                              ; preds = %179
  store i8 0, ptr %6, align 1
  br label %181

181:                                              ; preds = %180, %176, %173, %170, %167, %160, %153, %146, %139, %132, %125, %118, %111, %104, %97, %90, %83, %76, %69, %62, %55, %48, %41, %34, %27, %20
  %182 = load i8, ptr %6, align 1
  ret i8 %182
}