; Function Attrs: nounwind uwtable
define hidden signext i8 @nfaExpandState(ptr noundef %0, ptr noundef %1, ptr noundef %2, i64 noundef %3, i8 noundef zeroext %4) local_unnamed_addr #0 {
  %6 = getelementptr inbounds nuw i8, ptr %0, i64 8
  %7 = load i8, ptr %6, align 8
  switch i8 %7, label %50 [
    i8 0, label %8
    i8 1, label %10
    i8 2, label %12
    i8 3, label %14
    i8 4, label %16
    i8 5, label %18
    i8 6, label %20
    i8 7, label %22
    i8 8, label %24
    i8 9, label %26
    i8 10, label %28
    i8 11, label %30
    i8 12, label %32
    i8 13, label %34
    i8 14, label %36
    i8 15, label %38
    i8 16, label %40
    i8 17, label %42
    i8 18, label %44
    i8 19, label %46
    i8 20, label %48
  ]

8:                                                ; preds = %5
  %9 = tail call signext i8 @nfaExecLimEx32_expandState(ptr noundef nonnull %0, ptr noundef %1, ptr noundef %2, i64 noundef %3, i8 noundef zeroext %4) #3
  br label %50

10:                                               ; preds = %5
  %11 = tail call signext i8 @nfaExecLimEx64_expandState(ptr noundef nonnull %0, ptr noundef %1, ptr noundef %2, i64 noundef %3, i8 noundef zeroext %4) #3
  br label %50

12:                                               ; preds = %5
  %13 = tail call signext i8 @nfaExecLimEx128_expandState(ptr noundef nonnull %0, ptr noundef %1, ptr noundef %2, i64 noundef %3, i8 noundef zeroext %4) #3
  br label %50

14:                                               ; preds = %5
  %15 = tail call signext i8 @nfaExecLimEx256_expandState(ptr noundef nonnull %0, ptr noundef %1, ptr noundef %2, i64 noundef %3, i8 noundef zeroext %4) #3
  br label %50

16:                                               ; preds = %5
  %17 = tail call signext i8 @nfaExecLimEx384_expandState(ptr noundef nonnull %0, ptr noundef %1, ptr noundef %2, i64 noundef %3, i8 noundef zeroext %4) #3
  br label %50

18:                                               ; preds = %5
  %19 = tail call signext i8 @nfaExecLimEx512_expandState(ptr noundef nonnull %0, ptr noundef %1, ptr noundef %2, i64 noundef %3, i8 noundef zeroext %4) #3
  br label %50

20:                                               ; preds = %5
  %21 = tail call signext i8 @nfaExecMcClellan8_expandState(ptr noundef nonnull %0, ptr noundef %1, ptr noundef %2, i64 noundef %3, i8 noundef zeroext %4) #3
  br label %50

22:                                               ; preds = %5
  %23 = tail call signext i8 @nfaExecMcClellan16_expandState(ptr noundef nonnull %0, ptr noundef %1, ptr noundef %2, i64 noundef %3, i8 noundef zeroext %4) #3
  br label %50

24:                                               ; preds = %5
  %25 = tail call signext i8 @nfaExecGough8_expandState(ptr noundef nonnull %0, ptr noundef %1, ptr noundef %2, i64 noundef %3, i8 noundef zeroext %4) #3
  br label %50

26:                                               ; preds = %5
  %27 = tail call signext i8 @nfaExecGough16_expandState(ptr noundef nonnull %0, ptr noundef %1, ptr noundef %2, i64 noundef %3, i8 noundef zeroext %4) #3
  br label %50

28:                                               ; preds = %5
  %29 = tail call signext i8 @nfaExecMpv_expandState(ptr noundef nonnull %0, ptr noundef %1, ptr noundef %2, i64 noundef %3, i8 noundef zeroext %4) #3
  br label %50

30:                                               ; preds = %5
  %31 = tail call signext i8 @nfaExecLbrDot_expandState(ptr noundef nonnull %0, ptr noundef %1, ptr noundef %2, i64 noundef %3, i8 noundef zeroext %4) #3
  br label %50

32:                                               ; preds = %5
  %33 = tail call signext i8 @nfaExecLbrVerm_expandState(ptr noundef nonnull %0, ptr noundef %1, ptr noundef %2, i64 noundef %3, i8 noundef zeroext %4) #3
  br label %50

34:                                               ; preds = %5
  %35 = tail call signext i8 @nfaExecLbrNVerm_expandState(ptr noundef nonnull %0, ptr noundef %1, ptr noundef %2, i64 noundef %3, i8 noundef zeroext %4) #3
  br label %50

36:                                               ; preds = %5
  %37 = tail call signext i8 @nfaExecLbrShuf_expandState(ptr noundef nonnull %0, ptr noundef %1, ptr noundef %2, i64 noundef %3, i8 noundef zeroext %4) #3
  br label %50

38:                                               ; preds = %5
  %39 = tail call signext i8 @nfaExecLbrTruf_expandState(ptr noundef nonnull %0, ptr noundef %1, ptr noundef %2, i64 noundef %3, i8 noundef zeroext %4) #3
  br label %50

40:                                               ; preds = %5
  %41 = tail call signext i8 @nfaExecCastle_expandState(ptr noundef nonnull %0, ptr noundef %1, ptr noundef %2, i64 noundef %3, i8 noundef zeroext %4) #3
  br label %50

42:                                               ; preds = %5
  %43 = tail call signext i8 @nfaExecSheng_expandState(ptr noundef nonnull %0, ptr noundef %1, ptr noundef %2, i64 noundef %3, i8 noundef zeroext %4) #3
  br label %50

44:                                               ; preds = %5
  %45 = tail call signext i8 @nfaExecTamarama_expandState(ptr noundef nonnull %0, ptr noundef %1, ptr noundef %2, i64 noundef %3, i8 noundef zeroext %4) #3
  br label %50

46:                                               ; preds = %5
  %47 = tail call signext i8 @nfaExecMcSheng8_expandState(ptr noundef nonnull %0, ptr noundef %1, ptr noundef %2, i64 noundef %3, i8 noundef zeroext %4) #3
  br label %50

48:                                               ; preds = %5
  %49 = tail call signext i8 @nfaExecMcSheng16_expandState(ptr noundef nonnull %0, ptr noundef %1, ptr noundef %2, i64 noundef %3, i8 noundef zeroext %4) #3
  br label %50

50:                                               ; preds = %5, %48, %46, %44, %42, %40, %38, %36, %34, %32, %30, %28, %26, %24, %22, %20, %18, %16, %14, %12, %10, %8
  %.0 = phi i8 [ %49, %48 ], [ %47, %46 ], [ %45, %44 ], [ %43, %42 ], [ %41, %40 ], [ %39, %38 ], [ %37, %36 ], [ %35, %34 ], [ %33, %32 ], [ %31, %30 ], [ %29, %28 ], [ %27, %26 ], [ %25, %24 ], [ %23, %22 ], [ %21, %20 ], [ %19, %18 ], [ %17, %16 ], [ %15, %14 ], [ %13, %12 ], [ %11, %10 ], [ %9, %8 ], [ 0, %5 ]
  ret i8 %.0
}